target datalayout = "e-m:e-p270:32:32-p271:32:32-p272:64:64-i64:64-i128:128-f80:128-n8:16:32:64-S128"
target triple = "x86_64-pc-linux-gnu"

%"class.llvm::SmallVectorBase" = type { ptr, i32, i32 }
%"struct.(anonymous namespace)::Decomposition" = type { i64, %"class.llvm::SmallVector.438" }
%"class.llvm::SmallVector.438" = type { %"class.llvm::SmallVectorImpl.439", %"struct.llvm::SmallVectorStorage.442" }
%"class.llvm::SmallVectorImpl.439" = type { %"class.llvm::SmallVectorTemplateBase.440" }
%"class.llvm::SmallVectorTemplateBase.440" = type { %"class.llvm::SmallVectorTemplateCommon.441" }
%"class.llvm::SmallVectorTemplateCommon.441" = type { %"class.llvm::SmallVectorBase" }
%"struct.llvm::SmallVectorStorage.442" = type { [72 x i8] }
%"struct.(anonymous namespace)::DecompEntry" = type <{ i64, ptr, i8, [7 x i8] }>
%class.anon.468 = type { ptr, i8, ptr }

; Function Attrs: mustprogress nounwind uwtable
define internal noundef ptr @_ZNK4llvm25SmallVectorTemplateCommonIN12_GLOBAL__N_111DecompEntryEvE10getFirstElEv(ptr noundef nonnull align 8 dereferenceable(16) %0) #1 align 2 {
  %2 = alloca ptr, align 8
  store ptr %0, ptr %2, align 8
  %3 = load ptr, ptr %2, align 8
  %4 = getelementptr inbounds i8, ptr %3, i64 16
  ret ptr %4
}

; Function Attrs: mustprogress nounwind uwtable
define internal noundef zeroext i1 @_ZNK4llvm25SmallVectorTemplateCommonIN12_GLOBAL__N_111DecompEntryEvE7isSmallEv(ptr noundef nonnull align 8 dereferenceable(16) %0) #1 align 2 {
  %2 = alloca ptr, align 8
  store ptr %0, ptr %2, align 8
  %3 = load ptr, ptr %2, align 8
  %4 = getelementptr inbounds nuw %"class.llvm::SmallVectorBase", ptr %3, i32 0, i32 0
  %5 = load ptr, ptr %4, align 8
  %6 = call noundef ptr @_ZNK4llvm25SmallVectorTemplateCommonIN12_GLOBAL__N_111DecompEntryEvE10getFirstElEv(ptr noundef nonnull align 8 dereferenceable(16) %3)
  %7 = icmp eq ptr %5, %6
  ret i1 %7
}

; Function Attrs: mustprogress nounwind uwtable
define internal void @_ZN4llvm15SmallVectorImplIN12_GLOBAL__N_111DecompEntryEED2Ev(ptr noundef nonnull align 8 dereferenceable(16) %0) unnamed_addr #1 align 2 {
  %2 = alloca ptr, align 8
  store ptr %0, ptr %2, align 8
  %3 = load ptr, ptr %2, align 8
  %4 = call noundef zeroext i1 @_ZNK4llvm25SmallVectorTemplateCommonIN12_GLOBAL__N_111DecompEntryEvE7isSmallEv(ptr noundef nonnull align 8 dereferenceable(16) %3)
  br i1 %4, label %7, label %5

5:                                                ; preds = %1
  %6 = call noundef ptr @_ZN4llvm25SmallVectorTemplateCommonIN12_GLOBAL__N_111DecompEntryEvE5beginEv(ptr noundef nonnull align 8 dereferenceable(16) %3)
  call void @free(ptr noundef %6) #2
  br label %7

7:                                                ; preds = %5, %1
  ret void
}

; Function Attrs: mustprogress nounwind uwtable
define internal void @_ZN4llvm23SmallVectorTemplateBaseIN12_GLOBAL__N_111DecompEntryELb1EE13destroy_rangeEPS2_S4_(ptr noundef %0, ptr noundef %1) #1 align 2 {
  %3 = alloca ptr, align 8
  %4 = alloca ptr, align 8
  store ptr %0, ptr %3, align 8
  store ptr %1, ptr %4, align 8
  ret void
}

; Function Attrs: mustprogress nounwind uwtable
define internal noundef ptr @_ZN4llvm25SmallVectorTemplateCommonIN12_GLOBAL__N_111DecompEntryEvE3endEv(ptr noundef nonnull align 8 dereferenceable(16) %0) #1 align 2 {
  %2 = alloca ptr, align 8
  store ptr %0, ptr %2, align 8
  %3 = load ptr, ptr %2, align 8
  %4 = call noundef ptr @_ZN4llvm25SmallVectorTemplateCommonIN12_GLOBAL__N_111DecompEntryEvE5beginEv(ptr noundef nonnull align 8 dereferenceable(16) %3)
  %5 = call noundef i64 @_ZNK4llvm15SmallVectorBaseIjE4sizeEv(ptr noundef nonnull align 8 dereferenceable(16) %3)
  %6 = getelementptr inbounds %"struct.(anonymous namespace)::DecompEntry", ptr %4, i64 %5
  ret ptr %6
}

; Function Attrs: mustprogress nounwind uwtable
define internal noundef ptr @_ZN4llvm25SmallVectorTemplateCommonIN12_GLOBAL__N_111DecompEntryEvE5beginEv(ptr noundef nonnull align 8 dereferenceable(16) %0) #1 align 2 {
  %2 = alloca ptr, align 8
  store ptr %0, ptr %2, align 8
  %3 = load ptr, ptr %2, align 8
  %4 = getelementptr inbounds nuw %"class.llvm::SmallVectorBase", ptr %3, i32 0, i32 0
  %5 = load ptr, ptr %4, align 8
  ret ptr %5
}

; Function Attrs: mustprogress nounwind uwtable
define internal void @_ZN4llvm11SmallVectorIN12_GLOBAL__N_111DecompEntryELj3EED2Ev(ptr noundef nonnull align 8 dereferenceable(88) %0) unnamed_addr #1 align 2 {
  %2 = alloca ptr, align 8
  store ptr %0, ptr %2, align 8
  %3 = load ptr, ptr %2, align 8
  %4 = call noundef ptr @_ZN4llvm25SmallVectorTemplateCommonIN12_GLOBAL__N_111DecompEntryEvE5beginEv(ptr noundef nonnull align 8 dereferenceable(16) %3)
  %5 = call noundef ptr @_ZN4llvm25SmallVectorTemplateCommonIN12_GLOBAL__N_111DecompEntryEvE3endEv(ptr noundef nonnull align 8 dereferenceable(16) %3)
  call void @_ZN4llvm23SmallVectorTemplateBaseIN12_GLOBAL__N_111DecompEntryELb1EE13destroy_rangeEPS2_S4_(ptr noundef %4, ptr noundef %5)
  call void @_ZN4llvm15SmallVectorImplIN12_GLOBAL__N_111DecompEntryEED2Ev(ptr noundef nonnull align 8 dereferenceable(16) %3) #2
  ret void
}

; Function Attrs: mustprogress nounwind uwtable
define internal void @_ZN12_GLOBAL__N_113DecompositionD2Ev(ptr noundef nonnull align 8 dereferenceable(96) %0) unnamed_addr #1 align 2 {
  %2 = alloca ptr, align 8
  store ptr %0, ptr %2, align 8
  %3 = load ptr, ptr %2, align 8
  %4 = getelementptr inbounds nuw %"struct.(anonymous namespace)::Decomposition", ptr %3, i32 0, i32 1
  call void @_ZN4llvm11SmallVectorIN12_GLOBAL__N_111DecompEntryELj3EED2Ev(ptr noundef nonnull align 8 dereferenceable(88) %4) #2
  ret void
}

; Function Attrs: mustprogress nounwind uwtable
define internal void @"_ZZL9decomposePN4llvm5ValueERNS_15SmallVectorImplIN12_GLOBAL__N_111ConditionTyEEEbRKNS_10DataLayoutEENK3$_0clES1_S1_b"(ptr dead_on_unwind noalias writable sret(%"struct.(anonymous namespace)::Decomposition") align 8 %0, ptr noundef nonnull align 8 dereferenceable(24) %1, ptr noundef %2, ptr noundef %3, i1 noundef zeroext %4) #1 align 2 {
  %6 = alloca ptr, align 8
  %7 = alloca ptr, align 8
  %8 = alloca ptr, align 8
  %9 = alloca ptr, align 8
  %10 = alloca i8, align 1
  %11 = alloca i1, align 1
  %12 = alloca %"struct.(anonymous namespace)::Decomposition", align 8
  store ptr %0, ptr %6, align 8
  store ptr %1, ptr %7, align 8
  store ptr %2, ptr %8, align 8
  store ptr %3, ptr %9, align 8
  %13 = zext i1 %4 to i8
  store i8 %13, ptr %10, align 1
  %14 = load ptr, ptr %7, align 8
  store i1 false, ptr %11, align 1
  %15 = load ptr, ptr %8, align 8
  %16 = getelementptr inbounds nuw %class.anon.468, ptr %14, i32 0, i32 0
  %17 = load ptr, ptr %16, align 8
  %18 = getelementptr inbounds nuw %class.anon.468, ptr %14, i32 0, i32 1
  %19 = load i8, ptr %18, align 8
  %20 = trunc i8 %19 to i1
  %21 = getelementptr inbounds nuw %class.anon.468, ptr %14, i32 0, i32 2
  %22 = load ptr, ptr %21, align 8
  call void @_ZL9decomposePN4llvm5ValueERNS_15SmallVectorImplIN12_GLOBAL__N_111ConditionTyEEEbRKNS_10DataLayoutE(ptr dead_on_unwind writable sret(%"struct.(anonymous namespace)::Decomposition") align 8 %0, ptr noundef %15, ptr noundef nonnull align 8 dereferenceable(16) %17, i1 noundef zeroext %20, ptr noundef nonnull align 8 dereferenceable(512) %22)
  %23 = load ptr, ptr %9, align 8
  %24 = getelementptr inbounds nuw %class.anon.468, ptr %14, i32 0, i32 0
  %25 = load ptr, ptr %24, align 8
  %26 = load i8, ptr %10, align 1
  %27 = trunc i8 %26 to i1
  %28 = getelementptr inbounds nuw %class.anon.468, ptr %14, i32 0, i32 2
  %29 = load ptr, ptr %28, align 8
  call void @_ZL9decomposePN4llvm5ValueERNS_15SmallVectorImplIN12_GLOBAL__N_111ConditionTyEEEbRKNS_10DataLayoutE(ptr dead_on_unwind writable sret(%"struct.(anonymous namespace)::Decomposition") align 8 %12, ptr noundef %23, ptr noundef nonnull align 8 dereferenceable(16) %25, i1 noundef zeroext %27, ptr noundef nonnull align 8 dereferenceable(512) %29)
  call void @_ZN12_GLOBAL__N_113Decomposition3addERKS0_(ptr noundef nonnull align 8 dereferenceable(96) %0, ptr noundef nonnull align 8 dereferenceable(96) %12)
  store i1 true, ptr %11, align 1
  call void @_ZN12_GLOBAL__N_113DecompositionD2Ev(ptr noundef nonnull align 8 dereferenceable(96) %12) #2
  %30 = load i1, ptr %11, align 1
  br i1 %30, label %32, label %31

31:                                               ; preds = %5
  call void @_ZN12_GLOBAL__N_113DecompositionD2Ev(ptr noundef nonnull align 8 dereferenceable(96) %0) #2
  br label %32

32:                                               ; preds = %31, %5
  ret void
}