; Function Attrs: mustprogress nounwind uwtable
define internal fastcc void @"_ZZL9decomposePN4llvm5ValueERNS_15SmallVectorImplIN12_GLOBAL__N_111ConditionTyEEEbRKNS_10DataLayoutEENK3$_0clES1_S1_b"(ptr dead_on_unwind noalias writable align 8 %0, ptr nocapture noundef nonnull readonly align 8 dereferenceable(24) %1, ptr noundef %2, ptr noundef %3, i1 noundef zeroext %4) unnamed_addr #0 align 2 {
  %6 = alloca %"struct.(anonymous namespace)::Decomposition", align 8
  %7 = load ptr, ptr %1, align 8
  %8 = getelementptr inbounds nuw i8, ptr %1, i64 8
  %9 = load i8, ptr %8, align 8
  %10 = trunc i8 %9 to i1
  %11 = getelementptr inbounds nuw i8, ptr %1, i64 16
  %12 = load ptr, ptr %11, align 8
  tail call fastcc void @_ZL9decomposePN4llvm5ValueERNS_15SmallVectorImplIN12_GLOBAL__N_111ConditionTyEEEbRKNS_10DataLayoutE(ptr dead_on_unwind noalias writable align 8 %0, ptr noundef %2, ptr noundef nonnull align 8 dereferenceable(16) %7, i1 noundef zeroext %10, ptr noundef nonnull align 8 dereferenceable(512) %12)
  %13 = load ptr, ptr %1, align 8
  %14 = load ptr, ptr %11, align 8
  call fastcc void @_ZL9decomposePN4llvm5ValueERNS_15SmallVectorImplIN12_GLOBAL__N_111ConditionTyEEEbRKNS_10DataLayoutE(ptr dead_on_unwind noalias nonnull writable align 8 %6, ptr noundef %3, ptr noundef nonnull align 8 dereferenceable(16) %13, i1 noundef zeroext %4, ptr noundef nonnull align 8 dereferenceable(512) %14)
  call fastcc void @_ZN12_GLOBAL__N_113Decomposition3addERKS0_(ptr noundef nonnull align 8 dereferenceable(96) %0, ptr noundef nonnull align 8 dereferenceable(96) %6)
  %15 = getelementptr inbounds nuw i8, ptr %6, i64 8
  %16 = call noundef i64 @_ZNK4llvm15SmallVectorBaseIjE4sizeEv(ptr noundef nonnull align 8 dereferenceable(16) %15) #21
  %17 = load ptr, ptr %15, align 8
  %18 = getelementptr inbounds i8, ptr %6, i64 24
  %19 = icmp eq ptr %17, %18
  br i1 %19, label %_ZN12_GLOBAL__N_113DecompositionD2Ev.exit, label %20

20:                                               ; preds = %5
  call void @free(ptr noundef %17) #21
  br label %_ZN12_GLOBAL__N_113DecompositionD2Ev.exit

_ZN12_GLOBAL__N_113DecompositionD2Ev.exit:        ; preds = %5, %20
  ret void
}